target datalayout = "e-m:e-p270:32:32-p271:32:32-p272:64:64-i64:64-i128:128-f80:128-n8:16:32:64-S128"
target triple = "x86_64-pc-linux-gnu"

@INC_CID = hidden global i32 0, align 4
@proto_mac_mgmt_msg_dlmap_decoder = internal global i32 0, align 4
@ett_275_phy = internal global i32 0, align 4
@.str.4 = private unnamed_addr constant [26 x i8] c"Phy Synchronization Field\00", align 1
@hf_dlmap_phy_fdur_ms = internal global i32 0, align 4
@hf_dlmap_phy_fdur_per_sec = internal global i32 0, align 4
@hf_dlmap_phy_fnum = internal global i32 0, align 4
@hf_dlmap_dcd = internal global i32 0, align 4
@hf_dlmap_ofdma_sym = internal global i32 0, align 4
@ett_dlmap_ie = internal global i32 0, align 4
@.str.5 = private unnamed_addr constant [22 x i8] c"DL-MAP IEs (%d bytes)\00", align 1
@hf_padding = internal global i32 0, align 4
@.str.6 = private unnamed_addr constant [15 x i8] c"Padding nibble\00", align 1
@hf_dlmap_bsid = internal global i32 0, align 4
@hf_dlmap_phy_fdur = internal global i32 0, align 4
@ett_dlmap = internal global i32 0, align 4
@.str.615 = private unnamed_addr constant [7 x i8] c"DL-MAP\00", align 1

; Function Attrs: null_pointer_is_valid sspstrong uwtable
define internal i32 @dissect_mac_mgmt_msg_dlmap_decoder(ptr noundef %0, ptr noundef %1, ptr noundef %2, ptr noundef %3) #0 {
  %5 = alloca ptr, align 8
  %6 = alloca ptr, align 8
  %7 = alloca ptr, align 8
  %8 = alloca ptr, align 8
  %9 = alloca i32, align 4
  %10 = alloca i32, align 4
  %11 = alloca i32, align 4
  %12 = alloca i32, align 4
  %13 = alloca ptr, align 8
  %14 = alloca ptr, align 8
  %15 = alloca ptr, align 8
  %16 = alloca ptr, align 8
  %17 = alloca i32, align 4
  store ptr %0, ptr %5, align 8
  store ptr %1, ptr %6, align 8
  store ptr %2, ptr %7, align 8
  store ptr %3, ptr %8, align 8
  call void @llvm.lifetime.start.p0(i64 4, ptr %9) #3
  store i32 0, ptr %9, align 4
  call void @llvm.lifetime.start.p0(i64 4, ptr %10) #3
  call void @llvm.lifetime.start.p0(i64 4, ptr %11) #3
  call void @llvm.lifetime.start.p0(i64 4, ptr %12) #3
  call void @llvm.lifetime.start.p0(i64 8, ptr %13) #3
  store ptr null, ptr %13, align 8
  call void @llvm.lifetime.start.p0(i64 8, ptr %14) #3
  store ptr null, ptr %14, align 8
  call void @llvm.lifetime.start.p0(i64 8, ptr %15) #3
  store ptr null, ptr %15, align 8
  call void @llvm.lifetime.start.p0(i64 8, ptr %16) #3
  store ptr null, ptr %16, align 8
  call void @llvm.lifetime.start.p0(i64 4, ptr %17) #3
  %18 = load ptr, ptr %5, align 8
  %19 = call i32 @tvb_reported_length(ptr noundef %18)
  store i32 %19, ptr %17, align 4
  store i32 0, ptr @INC_CID, align 4
  %20 = load ptr, ptr %7, align 8
  %21 = load i32, ptr @proto_mac_mgmt_msg_dlmap_decoder, align 4
  %22 = load ptr, ptr %5, align 8
  %23 = load i32, ptr %9, align 4
  %24 = call ptr (ptr, i32, ptr, i32, i32, ptr, ...) @proto_tree_add_protocol_format(ptr noundef %20, i32 noundef %21, ptr noundef %22, i32 noundef %23, i32 noundef -1, ptr noundef @.str.615)
  store ptr %24, ptr %13, align 8
  %25 = load ptr, ptr %13, align 8
  %26 = load i32, ptr @ett_dlmap, align 4
  %27 = call ptr @proto_item_add_subtree(ptr noundef %25, i32 noundef %26)
  store ptr %27, ptr %14, align 8
  %28 = load ptr, ptr %14, align 8
  %29 = load ptr, ptr %5, align 8
  %30 = load i32, ptr %9, align 4
  %31 = load i32, ptr @ett_275_phy, align 4
  %32 = call ptr @proto_tree_add_subtree(ptr noundef %28, ptr noundef %29, i32 noundef %30, i32 noundef 4, i32 noundef %31, ptr noundef null, ptr noundef @.str.4)
  store ptr %32, ptr %16, align 8
  %33 = load ptr, ptr %16, align 8
  %34 = load i32, ptr @hf_dlmap_phy_fdur_ms, align 4
  %35 = load ptr, ptr %5, align 8
  %36 = load i32, ptr %9, align 4
  %37 = call ptr @proto_tree_add_item(ptr noundef %33, i32 noundef %34, ptr noundef %35, i32 noundef %36, i32 noundef 1, i32 noundef 0)
  %38 = load ptr, ptr %16, align 8
  %39 = load i32, ptr @hf_dlmap_phy_fdur_per_sec, align 4
  %40 = load ptr, ptr %5, align 8
  %41 = load i32, ptr %9, align 4
  %42 = call ptr @proto_tree_add_item(ptr noundef %38, i32 noundef %39, ptr noundef %40, i32 noundef %41, i32 noundef 1, i32 noundef 0)
  %43 = load ptr, ptr %16, align 8
  %44 = load i32, ptr @hf_dlmap_phy_fdur, align 4
  %45 = load ptr, ptr %5, align 8
  %46 = load i32, ptr %9, align 4
  %47 = call ptr @proto_tree_add_item(ptr noundef %43, i32 noundef %44, ptr noundef %45, i32 noundef %46, i32 noundef 1, i32 noundef 0)
  %48 = load i32, ptr %9, align 4
  %49 = add i32 %48, 1
  store i32 %49, ptr %9, align 4
  %50 = load ptr, ptr %16, align 8
  %51 = load i32, ptr @hf_dlmap_phy_fnum, align 4
  %52 = load ptr, ptr %5, align 8
  %53 = load i32, ptr %9, align 4
  %54 = call ptr @proto_tree_add_item(ptr noundef %50, i32 noundef %51, ptr noundef %52, i32 noundef %53, i32 noundef 3, i32 noundef 0)
  %55 = load i32, ptr %9, align 4
  %56 = add i32 %55, 3
  store i32 %56, ptr %9, align 4
  %57 = load ptr, ptr %14, align 8
  %58 = load i32, ptr @hf_dlmap_dcd, align 4
  %59 = load ptr, ptr %5, align 8
  %60 = load i32, ptr %9, align 4
  %61 = call ptr @proto_tree_add_item(ptr noundef %57, i32 noundef %58, ptr noundef %59, i32 noundef %60, i32 noundef 1, i32 noundef 0)
  %62 = load i32, ptr %9, align 4
  %63 = add i32 %62, 1
  store i32 %63, ptr %9, align 4
  %64 = load ptr, ptr %14, align 8
  %65 = load i32, ptr @hf_dlmap_bsid, align 4
  %66 = load ptr, ptr %5, align 8
  %67 = load i32, ptr %9, align 4
  %68 = call ptr @proto_tree_add_item(ptr noundef %64, i32 noundef %65, ptr noundef %66, i32 noundef %67, i32 noundef 6, i32 noundef 0)
  %69 = load i32, ptr %9, align 4
  %70 = add i32 %69, 6
  store i32 %70, ptr %9, align 4
  %71 = load ptr, ptr %14, align 8
  %72 = load i32, ptr @hf_dlmap_ofdma_sym, align 4
  %73 = load ptr, ptr %5, align 8
  %74 = load i32, ptr %9, align 4
  %75 = call ptr @proto_tree_add_item(ptr noundef %71, i32 noundef %72, ptr noundef %73, i32 noundef %74, i32 noundef 1, i32 noundef 0)
  %76 = load i32, ptr %9, align 4
  %77 = add i32 %76, 1
  store i32 %77, ptr %9, align 4
  %78 = load i32, ptr %17, align 4
  %79 = load i32, ptr %9, align 4
  %80 = sub i32 %78, %79
  store i32 %80, ptr %10, align 4
  %81 = load ptr, ptr %14, align 8
  %82 = load ptr, ptr %5, align 8
  %83 = load i32, ptr %9, align 4
  %84 = load i32, ptr %10, align 4
  %85 = load i32, ptr @ett_dlmap_ie, align 4
  %86 = load i32, ptr %10, align 4
  %87 = call ptr (ptr, ptr, i32, i32, i32, ptr, ptr, ...) @proto_tree_add_subtree_format(ptr noundef %81, ptr noundef %82, i32 noundef %83, i32 noundef %84, i32 noundef %85, ptr noundef null, ptr noundef @.str.5, i32 noundef %86)
  store ptr %87, ptr %15, align 8
  %88 = load i32, ptr %9, align 4
  %89 = mul i32 %88, 2
  store i32 %89, ptr %11, align 4
  br label %90

90:                                               ; preds = %96, %4
  %91 = load i32, ptr %11, align 4
  %92 = load i32, ptr %17, align 4
  %93 = mul i32 %92, 2
  %94 = sub i32 %93, 1
  %95 = icmp slt i32 %91, %94
  br i1 %95, label %96, label %106

96:                                               ; preds = %90
  %97 = load ptr, ptr %15, align 8
  %98 = load ptr, ptr %6, align 8
  %99 = load i32, ptr %11, align 4
  %100 = load i32, ptr %17, align 4
  %101 = mul i32 %100, 2
  %102 = load ptr, ptr %5, align 8
  %103 = call i32 @dissect_dlmap_ie(ptr noundef %97, ptr noundef %98, i32 noundef %99, i32 noundef %101, ptr noundef %102)
  %104 = load i32, ptr %11, align 4
  %105 = add i32 %104, %103
  store i32 %105, ptr %11, align 4
  br label %90, !llvm.loop !10

106:                                              ; preds = %90
  %107 = load i32, ptr %11, align 4
  %108 = and i32 %107, 1
  store i32 %108, ptr %12, align 4
  %109 = load i32, ptr %12, align 4
  %110 = icmp ne i32 %109, 0
  br i1 %110, label %111, label %125

111:                                              ; preds = %106
  %112 = load ptr, ptr %14, align 8
  %113 = load i32, ptr @hf_padding, align 4
  %114 = load ptr, ptr %5, align 8
  %115 = load i32, ptr %11, align 4
  %116 = sdiv i32 %115, 2
  %117 = load i32, ptr %11, align 4
  %118 = and i32 %117, 1
  %119 = add i32 1, %118
  %120 = add i32 %119, 1
  %121 = sdiv i32 %120, 2
  %122 = call ptr (ptr, i32, ptr, i32, i32, ptr, ptr, ...) @proto_tree_add_bytes_format(ptr noundef %112, i32 noundef %113, ptr noundef %114, i32 noundef %116, i32 noundef %121, ptr noundef null, ptr noundef @.str.6)
  %123 = load i32, ptr %11, align 4
  %124 = add i32 %123, 1
  store i32 %124, ptr %11, align 4
  br label %125

125:                                              ; preds = %111, %106
  %126 = load ptr, ptr %5, align 8
  %127 = call i32 @tvb_captured_length(ptr noundef %126)
  call void @llvm.lifetime.end.p0(i64 4, ptr %17) #3
  call void @llvm.lifetime.end.p0(i64 8, ptr %16) #3
  call void @llvm.lifetime.end.p0(i64 8, ptr %15) #3
  call void @llvm.lifetime.end.p0(i64 8, ptr %14) #3
  call void @llvm.lifetime.end.p0(i64 8, ptr %13) #3
  call void @llvm.lifetime.end.p0(i64 4, ptr %12) #3
  call void @llvm.lifetime.end.p0(i64 4, ptr %11) #3
  call void @llvm.lifetime.end.p0(i64 4, ptr %10) #3
  call void @llvm.lifetime.end.p0(i64 4, ptr %9) #3
  ret i32 %127
}