; Function Attrs: null_pointer_is_valid sspstrong uwtable
define internal i32 @dissect_mac_mgmt_msg_dlmap_decoder(ptr noundef %0, ptr noundef %1, ptr noundef %2, ptr readnone captures(none) %3) #0 {
  %5 = tail call i32 @tvb_reported_length(ptr noundef %0)
  store i32 0, ptr @INC_CID, align 4
  %6 = load i32, ptr @proto_mac_mgmt_msg_dlmap_decoder, align 4
  %7 = tail call ptr (ptr, i32, ptr, i32, i32, ptr, ...) @proto_tree_add_protocol_format(ptr noundef %2, i32 noundef %6, ptr noundef %0, i32 noundef 0, i32 noundef -1, ptr noundef nonnull @.str.615)
  %8 = load i32, ptr @ett_dlmap, align 4
  %9 = tail call ptr @proto_item_add_subtree(ptr noundef %7, i32 noundef %8)
  %10 = load i32, ptr @ett_275_phy, align 4
  %11 = tail call ptr @proto_tree_add_subtree(ptr noundef %9, ptr noundef %0, i32 noundef 0, i32 noundef 4, i32 noundef %10, ptr noundef null, ptr noundef nonnull @.str.4)
  %12 = load i32, ptr @hf_dlmap_phy_fdur_ms, align 4
  %13 = tail call ptr @proto_tree_add_item(ptr noundef %11, i32 noundef %12, ptr noundef %0, i32 noundef 0, i32 noundef 1, i32 noundef 0)
  %14 = load i32, ptr @hf_dlmap_phy_fdur_per_sec, align 4
  %15 = tail call ptr @proto_tree_add_item(ptr noundef %11, i32 noundef %14, ptr noundef %0, i32 noundef 0, i32 noundef 1, i32 noundef 0)
  %16 = load i32, ptr @hf_dlmap_phy_fdur, align 4
  %17 = tail call ptr @proto_tree_add_item(ptr noundef %11, i32 noundef %16, ptr noundef %0, i32 noundef 0, i32 noundef 1, i32 noundef 0)
  %18 = load i32, ptr @hf_dlmap_phy_fnum, align 4
  %19 = tail call ptr @proto_tree_add_item(ptr noundef %11, i32 noundef %18, ptr noundef %0, i32 noundef 1, i32 noundef 3, i32 noundef 0)
  %20 = load i32, ptr @hf_dlmap_dcd, align 4
  %21 = tail call ptr @proto_tree_add_item(ptr noundef %9, i32 noundef %20, ptr noundef %0, i32 noundef 4, i32 noundef 1, i32 noundef 0)
  %22 = load i32, ptr @hf_dlmap_bsid, align 4
  %23 = tail call ptr @proto_tree_add_item(ptr noundef %9, i32 noundef %22, ptr noundef %0, i32 noundef 5, i32 noundef 6, i32 noundef 0)
  %24 = load i32, ptr @hf_dlmap_ofdma_sym, align 4
  %25 = tail call ptr @proto_tree_add_item(ptr noundef %9, i32 noundef %24, ptr noundef %0, i32 noundef 11, i32 noundef 1, i32 noundef 0)
  %26 = add i32 %5, -12
  %27 = load i32, ptr @ett_dlmap_ie, align 4
  %28 = tail call ptr (ptr, ptr, i32, i32, i32, ptr, ptr, ...) @proto_tree_add_subtree_format(ptr noundef %9, ptr noundef %0, i32 noundef 12, i32 noundef %26, i32 noundef %27, ptr noundef null, ptr noundef nonnull @.str.5, i32 noundef %26)
  %29 = shl i32 %5, 1
  %30 = add i32 %29, -1
  %31 = icmp sgt i32 %30, 24
  br i1 %31, label %.lr.ph, label %._crit_edge.thread

.lr.ph:                                           ; preds = %4, %.lr.ph
  %.058 = phi i32 [ %33, %.lr.ph ], [ 24, %4 ]
  %32 = tail call fastcc i32 @dissect_dlmap_ie(ptr noundef %28, ptr noundef %1, i32 noundef %.058, i32 noundef %29, ptr noundef %0)
  %33 = add i32 %32, %.058
  %34 = icmp slt i32 %33, %30
  br i1 %34, label %.lr.ph, label %._crit_edge, !llvm.loop !28

._crit_edge:                                      ; preds = %.lr.ph
  %35 = and i32 %33, 1
  %.not = icmp eq i32 %35, 0
  br i1 %.not, label %._crit_edge.thread, label %36

36:                                               ; preds = %._crit_edge
  %37 = load i32, ptr @hf_padding, align 4
  %38 = sdiv i32 %33, 2
  %39 = tail call ptr (ptr, i32, ptr, i32, i32, ptr, ptr, ...) @proto_tree_add_bytes_format(ptr noundef %9, i32 noundef %37, ptr noundef %0, i32 noundef %38, i32 noundef 1, ptr noundef null, ptr noundef nonnull @.str.6)
  br label %._crit_edge.thread

._crit_edge.thread:                               ; preds = %4, %36, %._crit_edge
  %40 = tail call i32 @tvb_captured_length(ptr noundef %0)
  ret i32 %40
}